; Function Attrs: mustprogress uwtable
define hidden noundef ptr @_ZN6spacer14convex_closure9mk_eq_modEP4expr8rationalS3_(ptr noundef nonnull align 8 dereferenceable(240) %0, ptr noundef nonnull %1, ptr noundef %2, ptr noundef %3) local_unnamed_addr #3 align 2 {
  %5 = getelementptr inbounds nuw i8, ptr %0, i64 40
  %6 = tail call noundef ptr @_ZNK4expr8get_sortEv(ptr noundef nonnull align 4 dereferenceable(16) %1)
  %7 = getelementptr inbounds nuw i8, ptr %6, i64 24
  %8 = load ptr, ptr %7, align 8, !tbaa !91
  %9 = icmp eq ptr %8, null
  br i1 %9, label %_ZNK17arith_recognizers6is_intEPK4expr.exit.thread, label %_ZNK4decl13get_family_idEv.exit.thread.i.i.i.i

_ZNK4decl13get_family_idEv.exit.thread.i.i.i.i:   ; preds = %4
  %10 = load i32, ptr %8, align 8, !tbaa !96
  %11 = icmp eq i32 %10, 5
  br i1 %11, label %_ZNK17arith_recognizers6is_intEPK4expr.exit, label %_ZNK17arith_recognizers6is_intEPK4expr.exit.thread

_ZNK17arith_recognizers6is_intEPK4expr.exit:      ; preds = %_ZNK4decl13get_family_idEv.exit.thread.i.i.i.i
  %12 = getelementptr inbounds nuw i8, ptr %8, i64 4
  %13 = load i32, ptr %12, align 4, !tbaa !100
  %14 = icmp eq i32 %13, 1
  br i1 %14, label %15, label %_ZNK17arith_recognizers6is_intEPK4expr.exit.thread

15:                                               ; preds = %_ZNK17arith_recognizers6is_intEPK4expr.exit
  %16 = getelementptr inbounds nuw i8, ptr %0, i64 32
  %17 = load ptr, ptr %16, align 8, !tbaa !8
  %18 = getelementptr inbounds nuw i8, ptr %0, i64 48
  %19 = load ptr, ptr %18, align 8, !tbaa !101
  %.not.i.i.i = icmp eq ptr %19, null
  br i1 %.not.i.i.i, label %20, label %_ZN10arith_util6mk_intERK8rational.exit

20:                                               ; preds = %15
  tail call void @_ZN10arith_util11init_pluginEv(ptr noundef nonnull align 8 dereferenceable(16) %5)
  %.pre.i.i.i = load ptr, ptr %18, align 8, !tbaa !101
  br label %_ZN10arith_util6mk_intERK8rational.exit

_ZN10arith_util6mk_intERK8rational.exit:          ; preds = %15, %20
  %21 = phi ptr [ %.pre.i.i.i, %20 ], [ %19, %15 ]
  %22 = tail call noundef ptr @_ZN17arith_decl_plugin10mk_numeralERK8rationalb(ptr noundef nonnull align 8 dereferenceable(441) %21, ptr noundef nonnull align 8 dereferenceable(32) %2, i1 noundef zeroext true)
  %23 = load ptr, ptr %5, align 8, !tbaa !104
  %24 = tail call noundef ptr @_ZN11ast_manager6mk_appEiiP4exprS1_(ptr noundef nonnull align 8 dereferenceable(976) %23, i32 noundef 5, i32 noundef 16, ptr noundef nonnull %1, ptr noundef %22)
  %25 = load ptr, ptr %18, align 8, !tbaa !101
  %.not.i.i.i6 = icmp eq ptr %25, null
  br i1 %.not.i.i.i6, label %26, label %_ZN10arith_util6mk_intERK8rational.exit8

26:                                               ; preds = %_ZN10arith_util6mk_intERK8rational.exit
  tail call void @_ZN10arith_util11init_pluginEv(ptr noundef nonnull align 8 dereferenceable(16) %5)
  %.pre.i.i.i7 = load ptr, ptr %18, align 8, !tbaa !101
  br label %_ZN10arith_util6mk_intERK8rational.exit8

_ZN10arith_util6mk_intERK8rational.exit8:         ; preds = %_ZN10arith_util6mk_intERK8rational.exit, %26
  %27 = phi ptr [ %.pre.i.i.i7, %26 ], [ %25, %_ZN10arith_util6mk_intERK8rational.exit ]
  %28 = tail call noundef ptr @_ZN17arith_decl_plugin10mk_numeralERK8rationalb(ptr noundef nonnull align 8 dereferenceable(441) %27, ptr noundef nonnull align 8 dereferenceable(32) %3, i1 noundef zeroext true)
  %29 = tail call noundef ptr @_ZN11ast_manager6mk_appEiiP4exprS1_(ptr noundef nonnull align 8 dereferenceable(976) %17, i32 noundef 0, i32 noundef 2, ptr noundef %24, ptr noundef %28)
  br label %47

_ZNK17arith_recognizers6is_intEPK4expr.exit.thread: ; preds = %4, %_ZNK4decl13get_family_idEv.exit.thread.i.i.i.i, %_ZNK17arith_recognizers6is_intEPK4expr.exit
  %30 = getelementptr inbounds nuw i8, ptr %0, i64 56
  %31 = tail call noundef ptr @_ZNK4expr8get_sortEv(ptr noundef nonnull align 4 dereferenceable(16) %1)
  %32 = tail call noundef zeroext i1 @_ZNK14bv_recognizers10is_bv_sortEPK4sort(ptr noundef nonnull align 4 dereferenceable(4) %30, ptr noundef %31)
  br i1 %32, label %33, label %46

33:                                               ; preds = %_ZNK17arith_recognizers6is_intEPK4expr.exit.thread
  %34 = getelementptr inbounds nuw i8, ptr %0, i64 32
  %35 = load ptr, ptr %34, align 8, !tbaa !8
  %36 = getelementptr inbounds nuw i8, ptr %0, i64 80
  %37 = load i32, ptr %36, align 8, !tbaa !41
  %38 = tail call noundef ptr @_ZNK7bv_util10mk_numeralERK8rationalj(ptr noundef nonnull align 8 dereferenceable(24) %30, ptr noundef nonnull align 8 dereferenceable(32) %2, i32 noundef %37)
  %39 = getelementptr inbounds nuw i8, ptr %0, i64 64
  %40 = load ptr, ptr %39, align 8, !tbaa !137
  %41 = load i32, ptr %30, align 8, !tbaa !138
  %42 = tail call noundef ptr @_ZN11ast_manager6mk_appEiiP4exprS1_(ptr noundef nonnull align 8 dereferenceable(976) %40, i32 noundef %41, i32 noundef 10, ptr noundef nonnull %1, ptr noundef %38)
  %43 = load i32, ptr %36, align 8, !tbaa !41
  %44 = tail call noundef ptr @_ZNK7bv_util10mk_numeralERK8rationalj(ptr noundef nonnull align 8 dereferenceable(24) %30, ptr noundef nonnull align 8 dereferenceable(32) %3, i32 noundef %43)
  %45 = tail call noundef ptr @_ZN11ast_manager6mk_appEiiP4exprS1_(ptr noundef nonnull align 8 dereferenceable(976) %35, i32 noundef 0, i32 noundef 2, ptr noundef %42, ptr noundef %44)
  br label %47

46:                                               ; preds = %_ZNK17arith_recognizers6is_intEPK4expr.exit.thread
  tail call void @_Z26notify_assertion_violationPKciS0_(ptr noundef nonnull @.str.5, i32 noundef 386, ptr noundef nonnull @.str.6)
  tail call void @_Z18invoke_exit_actionj(i32 noundef 114)
  br label %47

47:                                               ; preds = %33, %46, %_ZN10arith_util6mk_intERK8rational.exit8
  %.0 = phi ptr [ %29, %_ZN10arith_util6mk_intERK8rational.exit8 ], [ %45, %33 ], [ null, %46 ]
  ret ptr %.0
}